target datalayout = "e-m:e-p270:32:32-p271:32:32-p272:64:64-i64:64-i128:128-f80:128-n8:16:32:64-S128"
target triple = "x86_64-pc-linux-gnu"

%struct.AVFilterContext = type { ptr, ptr, ptr, ptr, ptr, i32, ptr, ptr, i32, ptr, ptr, i32, i32, ptr, ptr, ptr, ptr, i32, ptr, i32, i32 }
%struct.DebandContext = type { ptr, i32, [4 x float], i32, i32, float, i32, [4 x i32], [4 x i32], [2 x i32], [4 x i32], ptr, ptr, ptr }

@query_formats.cpix_fmts = internal constant [19 x i32] [i32 5, i32 14, i32 79, i32 66, i32 85, i32 91, i32 131, i32 133, i32 49, i32 97, i32 71, i32 111, i32 73, i32 75, i32 135, i32 137, i32 77, i32 113, i32 -1], align 16

; Function Attrs: nounwind uwtable
define internal i32 @query_formats(ptr noundef %0, ptr noundef %1, ptr noundef %2) #1 {
  %4 = alloca ptr, align 8
  %5 = alloca ptr, align 8
  %6 = alloca ptr, align 8
  %7 = alloca ptr, align 8
  store ptr %0, ptr %4, align 8, !tbaa !4
  store ptr %1, ptr %5, align 8, !tbaa !24
  store ptr %2, ptr %6, align 8, !tbaa !24
  call void @llvm.lifetime.start.p0(i64 8, ptr %7) #10
  %8 = load ptr, ptr %4, align 8, !tbaa !4
  %9 = getelementptr inbounds nuw %struct.AVFilterContext, ptr %8, i32 0, i32 9
  %10 = load ptr, ptr %9, align 8, !tbaa !9
  store ptr %10, ptr %7, align 8, !tbaa !22
  %11 = load ptr, ptr %4, align 8, !tbaa !4
  %12 = load ptr, ptr %5, align 8, !tbaa !24
  %13 = load ptr, ptr %6, align 8, !tbaa !24
  %14 = load ptr, ptr %7, align 8, !tbaa !22
  %15 = getelementptr inbounds nuw %struct.DebandContext, ptr %14, i32 0, i32 1
  %16 = load i32, ptr %15, align 8, !tbaa !26
  %17 = icmp ne i32 %16, 0
  %18 = select i1 %17, ptr @query_formats.cpix_fmts, ptr @query_formats.pix_fmts
  %19 = call i32 @ff_set_common_formats_from_list2(ptr noundef %11, ptr noundef %12, ptr noundef %13, ptr noundef %18)
  call void @llvm.lifetime.end.p0(i64 8, ptr %7) #10
  ret i32 %19
}